target datalayout = "e-m:e-p270:32:32-p271:32:32-p272:64:64-i64:64-i128:128-f80:128-n8:16:32:64-S128"
target triple = "x86_64-pc-linux-gnu"

%struct._zend_refcounted_h = type { i32, %union.anon.3 }
%union.anon.3 = type { i32 }
%struct._zend_string = type { %struct._zend_refcounted_h, i64, i64, [1 x i8] }

; Function Attrs: nounwind uwtable
define zeroext i1 @php_random_hex2bin_le(ptr noundef %0, ptr noundef %1) #0 {
  %3 = alloca i1, align 1
  %4 = alloca ptr, align 8
  %5 = alloca ptr, align 8
  %6 = alloca i64, align 8
  %7 = alloca ptr, align 8
  %8 = alloca i8, align 1
  %9 = alloca i8, align 1
  %10 = alloca i8, align 1
  %11 = alloca ptr, align 8
  %12 = alloca i32, align 4
  %13 = alloca i32, align 4
  %14 = alloca i64, align 8
  store ptr %0, ptr %4, align 8
  store ptr %1, ptr %5, align 8
  %15 = load ptr, ptr %4, align 8
  %16 = getelementptr inbounds %struct._zend_string, ptr %15, i32 0, i32 2
  %17 = load i64, ptr %16, align 8
  %18 = lshr i64 %17, 1
  store i64 %18, ptr %6, align 8
  %19 = load ptr, ptr %4, align 8
  %20 = getelementptr inbounds %struct._zend_string, ptr %19, i32 0, i32 3
  %21 = getelementptr inbounds [1 x i8], ptr %20, i64 0, i64 0
  store ptr %21, ptr %7, align 8
  %22 = load ptr, ptr %5, align 8
  store ptr %22, ptr %11, align 8
  store i32 0, ptr %13, align 4
  store i64 0, ptr %14, align 8
  br label %23

23:                                               ; preds = %120, %2
  %24 = load i64, ptr %14, align 8
  %25 = load i64, ptr %6, align 8
  %26 = icmp ult i64 %24, %25
  br i1 %26, label %27, label %123

27:                                               ; preds = %23
  %28 = load ptr, ptr %7, align 8
  %29 = load i32, ptr %13, align 4
  %30 = add nsw i32 %29, 1
  store i32 %30, ptr %13, align 4
  %31 = sext i32 %29 to i64
  %32 = getelementptr inbounds i8, ptr %28, i64 %31
  %33 = load i8, ptr %32, align 1
  store i8 %33, ptr %8, align 1
  %34 = load i8, ptr %8, align 1
  %35 = zext i8 %34 to i32
  %36 = and i32 %35, -33
  %37 = trunc i32 %36 to i8
  store i8 %37, ptr %9, align 1
  %38 = load i8, ptr %9, align 1
  %39 = zext i8 %38 to i32
  %40 = sub nsw i32 %39, 65
  %41 = load i8, ptr %9, align 1
  %42 = zext i8 %41 to i32
  %43 = sub nsw i32 %42, 70
  %44 = sub nsw i32 %43, 1
  %45 = xor i32 %40, %44
  %46 = lshr i32 %45, 31
  store i32 %46, ptr %12, align 4
  %47 = load i8, ptr %8, align 1
  %48 = zext i8 %47 to i32
  %49 = xor i32 %48, 48
  %50 = sub nsw i32 %49, 10
  %51 = ashr i32 %50, 31
  %52 = load i32, ptr %12, align 4
  %53 = or i32 %51, %52
  %54 = icmp ne i32 %53, 0
  %55 = xor i1 %54, true
  %56 = xor i1 %55, true
  %57 = zext i1 %56 to i32
  %58 = sext i32 %57 to i64
  %59 = icmp ne i64 %58, 0
  br i1 %59, label %60, label %69

60:                                               ; preds = %27
  %61 = load i8, ptr %9, align 1
  %62 = zext i8 %61 to i32
  %63 = sub nsw i32 %62, 16
  %64 = load i32, ptr %12, align 4
  %65 = mul nsw i32 39, %64
  %66 = sub nsw i32 %63, %65
  %67 = shl i32 %66, 4
  %68 = trunc i32 %67 to i8
  store i8 %68, ptr %10, align 1
  br label %70

69:                                               ; preds = %27
  store i1 false, ptr %3, align 1
  br label %124

70:                                               ; preds = %60
  %71 = load ptr, ptr %7, align 8
  %72 = load i32, ptr %13, align 4
  %73 = add nsw i32 %72, 1
  store i32 %73, ptr %13, align 4
  %74 = sext i32 %72 to i64
  %75 = getelementptr inbounds i8, ptr %71, i64 %74
  %76 = load i8, ptr %75, align 1
  store i8 %76, ptr %8, align 1
  %77 = load i8, ptr %8, align 1
  %78 = zext i8 %77 to i32
  %79 = and i32 %78, -33
  %80 = trunc i32 %79 to i8
  store i8 %80, ptr %9, align 1
  %81 = load i8, ptr %9, align 1
  %82 = zext i8 %81 to i32
  %83 = sub nsw i32 %82, 65
  %84 = load i8, ptr %9, align 1
  %85 = zext i8 %84 to i32
  %86 = sub nsw i32 %85, 70
  %87 = sub nsw i32 %86, 1
  %88 = xor i32 %83, %87
  %89 = lshr i32 %88, 31
  store i32 %89, ptr %12, align 4
  %90 = load i8, ptr %8, align 1
  %91 = zext i8 %90 to i32
  %92 = xor i32 %91, 48
  %93 = sub nsw i32 %92, 10
  %94 = ashr i32 %93, 31
  %95 = load i32, ptr %12, align 4
  %96 = or i32 %94, %95
  %97 = icmp ne i32 %96, 0
  %98 = xor i1 %97, true
  %99 = xor i1 %98, true
  %100 = zext i1 %99 to i32
  %101 = sext i32 %100 to i64
  %102 = icmp ne i64 %101, 0
  br i1 %102, label %103, label %114

103:                                              ; preds = %70
  %104 = load i8, ptr %9, align 1
  %105 = zext i8 %104 to i32
  %106 = sub nsw i32 %105, 16
  %107 = load i32, ptr %12, align 4
  %108 = mul nsw i32 39, %107
  %109 = sub nsw i32 %106, %108
  %110 = load i8, ptr %10, align 1
  %111 = zext i8 %110 to i32
  %112 = or i32 %111, %109
  %113 = trunc i32 %112 to i8
  store i8 %113, ptr %10, align 1
  br label %115

114:                                              ; preds = %70
  store i1 false, ptr %3, align 1
  br label %124

115:                                              ; preds = %103
  %116 = load i8, ptr %10, align 1
  %117 = load ptr, ptr %11, align 8
  %118 = load i64, ptr %14, align 8
  %119 = getelementptr inbounds i8, ptr %117, i64 %118
  store i8 %116, ptr %119, align 1
  br label %120

120:                                              ; preds = %115
  %121 = load i64, ptr %14, align 8
  %122 = add nsw i64 %121, 1
  store i64 %122, ptr %14, align 8
  br label %23

123:                                              ; preds = %23
  store i1 true, ptr %3, align 1
  br label %124

124:                                              ; preds = %123, %114, %69
  %125 = load i1, ptr %3, align 1
  ret i1 %125
}